gplink-1.5.0 #1285 (Sep 12 2016)
Copyright (c) 1998-2016 gputils project
Listing File Generated: 6-22-2019  21:42:40


Address  Value    Disassembly              Source
-------  -----    -----------              ------
                                           	include "p18f1320.inc" ;include the defaults for the chip
                                                   LIST

                                           ;==========================================================================
                                           ; Build date : Oct 21 2015
                                           ;  MPASM PIC18F1320 processor include
                                           ; 
                                           ;  (c) Copyright 1999-2015 Microchip Technology, All rights reserved
                                           ;==========================================================================

                                                   NOLIST
                                           ;	include "eep.inc"
                                           	
                                           	ERRORLEVEL 0, -302 ;suppress bank selection messages
                                           	
                                           	config OSC = INTIO2 ; Internal Oscillator with FOSC/4 -RA6 and RA7 = I/O
                                           	config FSCM = OFF ; Fail-Safe Clock Monitor disabled
                                           	config IESO = OFF ; Internal External Switch Over mode disabled
                                           	config PWRT = OFF ; Power up timer disabled
                                           	config BOR = OFF ; Brown out reset disabled
                                           	config WDT = OFF ; Watch dog timer off
                                           	config MCLRE = OFF ; MCLRE off (pin available for input)
                                           	config LVP = OFF ; Low voltage programming disabled
                                           	config DEBUG = OFF ; Background debugger off 	CONFIG  _CONFIG2L, _PWRT_ON_2L & _BOR_OFF_2L & _BORV_27_2L
                                           	
                                           	extern f_lcd_init
                                           	extern f_lcd_affboot
                                           	extern f_lcd_clear
                                           	extern f_lcd_setposcursor
                                           IFDEF TEST
                                           	extern f_lcd_aff_fwd_and_ref
                                           	extern f_lcd_affadc
                                           	extern f_calc_adcmV
                                           	extern f_lcd_aff_adcmV
                                           ENDIF
                                           	extern f_adc_init
                                           	extern f_adc_readAN0
                                           	extern f_adc_readAN1
                                           	
                                           	udata
                                           v_timer0 res 1 
                                           v_timer1 res 1
                                           v_timer2 res 1
                                           v_mode_calib res 1

                                           	code
000000   ef02     goto    0x000004         	goto Init ;
000002   f000

                                           Init
                                           ; Initialisation PIC
000004   0e62     movlw   0x62             	movlw   B'01100010'			;4 MHz 
000006   6ed3     movwf   0xd3, 0x0        	movwf   OSCCON
000008   6a80     clrf    0x80, 0x0        	clrf PORTA ; Initialize PORTA by setting output data latches
00000a   0e03     movlw   0x03             	movlw b'00000011' ; PortA Outputs
00000c   6e92     movwf   0x92, 0x0        	movwf TRISA ; RA0, RA1 input
00000e   0e00     movlw   0x00             	movlw b'00000000' ; PortB Outputs
000010   6e93     movwf   0x93, 0x0        	movwf TRISB ; Change PortB I/O

000012   6af2     clrf    0xf2, 0x0        	clrf    INTCON              ;disable all interrupts part one
000014   0e80     movlw   0x80             	movlw	B'10000000'         ;disable all interrupts part two & 
000016   6ef1     movwf   0xf1, 0x0        	movwf   INTCON2             ;PORTB pull-up disable
000018   6af0     clrf    0xf0, 0x0        	clrf    INTCON3             ;disable all interrupts part three
00001a   6a9f     clrf    0x9f, 0x0        	clrf    IPR1                ;clear, no priority is used
00001c   6aa2     clrf    0xa2, 0x0        	clrf    IPR2                ;clear, no priority is used
00001e   6a9d     clrf    0x9d, 0x0        	clrf    PIE1                ;Individualy disable interrupts
000020   6aa0     clrf    0xa0, 0x0        	clrf    PIE2                ;Individualy disable interrupts
000022   9ed0     bcf     0xd0, 0x7, 0x0   	bcf     RCON,IPEN           ;Disable priority levels
000024   6aa6     clrf    0xa6, 0x0        	clrf    EECON1              ;clear EEPROM control register
000026   90d1     bcf     0xd1, 0x0, 0x0   	bcf		WDTCON,SWDTEN		;stop watchdog
000028   6abd     clrf    0xbd, 0x0        	clrf   CCP1CON

                                           ; Initialisation ADC
00002a   ecf8     call    0x000bf0, 0x0     	call f_adc_init		;
00002c   f005

                                           ; Initialisation LCD
00002e   ec08     call    0x000a10, 0x0    	call f_lcd_init ; Initialize the LCD Display 
000030   f005
                                           	
                                           ; Afficher le message de boot
000032   ec43     call    0x000a86, 0x0    	call f_lcd_affboot
000034   f005
                                           	
                                           ;; Tempo de 5s
000036   ec32     call    0x000064, 0x0    	call f_tempo_boot
000038   f000
00003a   ec32     call    0x000064, 0x0    	call f_tempo_boot
00003c   f000

                                           ;; Effacer le LCD (lcd_clear)
00003e   ecd7     call    0x0009ae, 0x0    	call f_lcd_clear
000040   f004
                                           	;;Positionner le curseur du LCD sur la ligne 1
000042   0e00     movlw   0x00             	movlw 0x00
000044   ecbf     call    0x00097e, 0x0    	call f_lcd_setposcursor
000046   f004

                                           IFDEF TEST
000048   ec76     call    0x000aec, 0x0    	call f_lcd_aff_fwd_and_ref
00004a   f005
                                           test_loop
                                           	;;lire les registres ADCfwd et ADCref
00004c   ecff     call    0x000bfe, 0x0    	call f_adc_readAN0
00004e   f005
000050   ec0e     call    0x000c1c, 0x0    	call f_adc_readAN1
000052   f006

                                           	;; afficher la mesure des ADC en mode test
000054   eca6     call    0x000b4c, 0x0    	call f_lcd_affadc
000056   f005
                                           	;; Convertir la mesure des ADC en mV
000058   ec24     call    0x000c48, 0x0    	call f_calc_adcmV
00005a   f006
00005c   ecc6     call    0x000b8c, 0x0    	call f_lcd_aff_adcmV
00005e   f005

000060   ef26     goto    0x00004c         	goto test_loop
000062   f000
                                           ENDIF	


                                           IFNDEF TEST
                                           IFNDEF CALIBRATION
                                           	;; test du strap de calibration/mesure
                                           	btfsc STATUS, Z
                                           	goto meas_loop; 0xFF calibration effectuée, passer en mode mesure
                                           ENDIF
                                           ;; 	afficher le message de calibration (lcd_affcalib)
                                           	call f_lcd_affcalib

                                           IFNDEF CALIBRATION
                                           	;; phase mesure
                                           ENDIF
                                           	
                                           ENDIF


                                           ;-----------------------------------------
                                           ;Fonction : temporisation de 2.5s
                                           ;Nom : tempo_boot 
                                           ;Entrée : 
                                           ;Sortie : 
                                           ;Traitement : 
                                           ;		1.	appeler 10x une temporisation de 250ms
                                           ;-----------------------------------------

                                           f_tempo_boot
000064   ec47     call    0x00008e, 0x0    	call delay_250ms
000066   f000
000068   ec47     call    0x00008e, 0x0    	call delay_250ms
00006a   f000
00006c   ec47     call    0x00008e, 0x0    	call delay_250ms
00006e   f000
000070   ec47     call    0x00008e, 0x0    	call delay_250ms
000072   f000
000074   ec47     call    0x00008e, 0x0    	call delay_250ms
000076   f000
000078   ec47     call    0x00008e, 0x0    	call delay_250ms
00007a   f000
00007c   ec47     call    0x00008e, 0x0    	call delay_250ms
00007e   f000
000080   ec47     call    0x00008e, 0x0    	call delay_250ms
000082   f000
000084   ec47     call    0x00008e, 0x0    	call delay_250ms
000086   f000
000088   ec47     call    0x00008e, 0x0    	call delay_250ms
00008a   f000
00008c   0012     return  0x0              	return

                                           delay_250ms
00008e   0efa     movlw   0xfa             	movlw d'250' ; delay 250mS
000090   6f80     movwf   0x80, 0x1        	movwf v_timer0 ;
000092   ef4b     goto    0x000096         	goto delay1
000094   f000
                                           delay1
000096   0ec7     movlw   0xc7             	movlw 0xC7 ; delay 1mS
000098   6f81     movwf   0x81, 0x1        	movwf v_timer1 ;
00009a   0e01     movlw   0x01             	movlw 0x01 ;
00009c   6f82     movwf   0x82, 0x1        	movwf v_timer2 ;
                                           delay
00009e   2f81     decfsz  0x81, 0x1, 0x1   	decfsz v_timer1,f ;
0000a0   ef53     goto    0x0000a6         	goto $+6 ;
0000a2   f000
0000a4   2f82     decfsz  0x82, 0x1, 0x1   	decfsz v_timer2,f ;
0000a6   ef4f     goto    0x00009e         	goto delay ;
0000a8   f000
0000aa   2f80     decfsz  0x80, 0x1, 0x1   	decfsz v_timer0,f ;
0000ac   ef4b     goto    0x000096         	goto delay1 ;
0000ae   f000
0000b0   0c00     retlw   0x00             	retlw 0x00 ;

                                           	end 
                                           	include "p18f1320.inc" ;include the defaults for the chip
                                                   LIST

                                           ;==========================================================================
                                           ; Build date : Oct 21 2015
                                           ;  MPASM PIC18F1320 processor include
                                           ; 
                                           ;  (c) Copyright 1999-2015 Microchip Technology, All rights reserved
                                           ;==========================================================================

                                                   NOLIST
                                           	include "eep.inc"
                                           #define __SW_VERSION_EEP_ADDR __EEPROM_START
                                           IFDEF CALIBRATION
                                           #define __OFFSET_CAL_TABLE __SW_VERSION_EEP_ADDR + 5
                                           #ENDIF


                                           ;-----------------------------------------
                                           ;Fonction : Message de version courante du logiciel
                                           ;Nom : 
                                           ;Entrée : 
                                           ;Sortie :
                                           ;Traitement :
                                           ;	Zone de mémoire (5 bytes) dédiée au stokage de la version logcielle
                                           ; 	"V1.0" par exemple
                                           ; cette zone de mémoire est placée en 0x2100 systématiquement par le compilateur
                                           ; cette zone est remplie par le compilateur
                                           ;-----------------------------------------  
                                           s_eep code __SW_VERSION_EEP_ADDR
                                           	DE SW_VERSION

                                           	DE 0x00 		;marqueur de fin

                                           	end
                                           	include "p18f1320.inc" ;include the defaults for the chip
                                                   LIST

                                           ;==========================================================================
                                           ; Build date : Oct 21 2015
                                           ;  MPASM PIC18F1320 processor include
                                           ; 
                                           ;  (c) Copyright 1999-2015 Microchip Technology, All rights reserved
                                           ;==========================================================================

                                                   NOLIST

                                           	code 
                                           ;-----------------------------------------
                                           ;Fonction : Message de boot ligne 1 du LCD
                                           ;Nom : bootmsgL1
                                           ;Entrée : 
                                           ;	v_charpos (1 byte) :position du caractère à retourner
                                           ;Sortie :
                                           ;	W (1 byte) : contient le caractère ou 0x00 si pas de caractère
                                           ;Traitement :
                                           ;	Zone de mémoire dédiée au stokage du message de boot (L1 du LCD)
                                           ; 	"SWR-POWER meter"
                                           ;-----------------------------------------  
                                           c_bootmsgL1 
0000b2   26f9     addwf   0xf9, 0x1, 0x0   	addwf PCL, f
0000b4   0c53     retlw   0x53             	retlw 'S'
0000b6   0c57     retlw   0x57             	retlw 'W'
0000b8   0c52     retlw   0x52             	retlw 'R'
0000ba   0c2d     retlw   0x2d             	retlw '-'
0000bc   0c50     retlw   0x50             	retlw 'P'
0000be   0c4f     retlw   0x4f             	retlw 'O'
0000c0   0c57     retlw   0x57             	retlw 'W'
0000c2   0c45     retlw   0x45             	retlw 'E'
0000c4   0c52     retlw   0x52             	retlw 'R'
0000c6   0c20     retlw   0x20             	retlw ' '
0000c8   0c4d     retlw   0x4d             	retlw 'M'
0000ca   0c65     retlw   0x65             	retlw 'e'
0000cc   0c74     retlw   0x74             	retlw 't'
0000ce   0c65     retlw   0x65             	retlw 'e'
0000d0   0c72     retlw   0x72             	retlw 'r'
0000d2   0c00     retlw   0x00             	retlw 0x00

                                           ;-----------------------------------------
                                           ;Fonction : Message de boot ligne 2 du LCD
                                           ;Nom : bootmsgL2
                                           ;Entrée : 
                                           ;	v_charpos (1 byte) :position du caractère à retourner
                                           ;Sortie :
                                           ;	W (1 byte) : contient le caractère ou 0x00 si pas de caractère
                                           ;Traitement :
                                           ;	Zone de mémoire dédiée au stokage du message de boot (L2 du LCD)
                                           ; 	"F8KGL"
                                           ;-----------------------------------------  
                                           c_bootmsgL2 
0000d4   26f9     addwf   0xf9, 0x1, 0x0   	addwf PCL, f
0000d6   0c46     retlw   0x46             	retlw 'F'
0000d8   0c38     retlw   0x38             	retlw '8'
0000da   0c4b     retlw   0x4b             	retlw 'K'
0000dc   0c47     retlw   0x47             	retlw 'G'
0000de   0c4c     retlw   0x4c             	retlw 'L'
0000e0   0c00     retlw   0x00             	retlw 0x00

                                           IFDEF TEST
                                           ;-----------------------------------------
                                           ;Fonction : Message du mode de test ligne 1 du LCD
                                           ;Nom : testmsgL1
                                           ;Entrée : 
                                           ;	v_charpos (1 byte) :position du caractère à retourner
                                           ;Sortie :
                                           ;	W (1 byte) : contient le caractère ou 0x00 si pas de caractère
                                           ;Traitement :
                                           ;	Zone de mémoire dédiée au stokage du message de calibration (L1 du LCD)
                                           ; 	"FWD "
                                           ;-----------------------------------------  
                                           c_testmsgL1
0000e2   26f9     addwf   0xf9, 0x1, 0x0   	addwf PCL, f
0000e4   0c46     retlw   0x46             	retlw 'F'
0000e6   0c57     retlw   0x57             	retlw 'W'
0000e8   0c44     retlw   0x44             	retlw 'D'
0000ea   0c20     retlw   0x20             	retlw ' '
0000ec   0c00     retlw   0x00             	retlw 0x00

                                           ;-----------------------------------------
                                           ;Fonction : Message du mode de test ligne 2 du LCD
                                           ;Nom : calibmsgL2
                                           ;Entrée : 
                                           ;	v_charpos (1 byte) :position du caractère à retourner
                                           ;Sortie :
                                           ;	W (1 byte) : contient le caractère ou 0x00 si pas de caractère
                                           ;Traitement :
                                           ;	Zone de mémoire dédiée au stokage du message de calibration (L2 du LCD)
                                           ; 	"REF "
                                           ;-----------------------------------------  
                                           c_testmsgL2 
0000ee   26f9     addwf   0xf9, 0x1, 0x0   	addwf PCL, f
0000f0   0c52     retlw   0x52             	retlw 'R'
0000f2   0c45     retlw   0x45             	retlw 'E'
0000f4   0c46     retlw   0x46             	retlw 'F'
0000f6   0c20     retlw   0x20             	retlw ' '
0000f8   0c00     retlw   0x00             	retlw 0x00
                                           ENDIF

                                           	global c_bootmsgL1
                                           	global c_bootmsgL2
                                           IFDEF TEST
                                           	global c_testmsgL1
                                           	global c_testmsgL2
                                           ENDIF
                                           	
                                           	end

                                           	
                                           	include "p18f1320.inc" ;include the defaults for the chip
                                                   LIST

                                           ;==========================================================================
                                           ; Build date : Oct 21 2015
                                           ;  MPASM PIC18F1320 processor include
                                           ; 
                                           ;  (c) Copyright 1999-2015 Microchip Technology, All rights reserved
                                           ;==========================================================================

                                                   NOLIST


                                           ;-----------------------------------------
                                           ;Fonctions Table de calibration du détecteur HF
                                           ;Nom c_calibration_table		;
                                           ;Paramètres entrée
                                           ;Paramètres sorties
                                           ;Traitements
                                           ;Zone de mémoire dédiée au stockage de la calibration du détecteur HF.
                                           ;Zone en flash à l'adresse défini dans le makefile
                                           ;#Le code ci-dessous est assemblé uniquement dans le firmware de test ;
                                           ;cette table est la conversion brute d'une valeur hexa en mV (§3.1)
                                           ;	0x0000 0x0000
                                           ;	0x0001 0x0005
                                           ; 	0x0002 0x000A
                                           ;	...    ...
                                           ; 	0x3FE 0x137E
                                           ; 	0x3FF 0x1383
                                           ;-----------------------------------------

                                           	code
                                           c_data_adc_theoric_caltable
                                           #IFDEF TEST
0000fa   0000     nop                      	DW 0x0
0000fc   0005     push                     	DW 0x5
0000fe   000a     tblrd*-                  	DW 0xA
000100   000f     tblwt+*                  	DW 0xF
000102   0014     dw      0x0014           	DW 0x14
000104   0018     dw      0x0018           	DW 0x18
000106   001d     dw      0x001d           	DW 0x1D
000108   0022     dw      0x0022           	DW 0x22
00010a   0027     dw      0x0027           	DW 0x27
00010c   002c     dw      0x002c           	DW 0x2C
00010e   0031     dw      0x0031           	DW 0x31
000110   0036     dw      0x0036           	DW 0x36
000112   003b     dw      0x003b           	DW 0x3B
000114   003f     dw      0x003f           	DW 0x3F
000116   0044     dw      0x0044           	DW 0x44
000118   0049     dw      0x0049           	DW 0x49
00011a   004e     dw      0x004e           	DW 0x4E
00011c   0053     dw      0x0053           	DW 0x53
00011e   0058     dw      0x0058           	DW 0x58
000120   005d     dw      0x005d           	DW 0x5D
000122   0062     dw      0x0062           	DW 0x62
000124   0067     dw      0x0067           	DW 0x67
000126   006b     dw      0x006b           	DW 0x6B
000128   0070     dw      0x0070           	DW 0x70
00012a   0075     dw      0x0075           	DW 0x75
00012c   007a     dw      0x007a           	DW 0x7A
00012e   007f     dw      0x007f           	DW 0x7F
000130   0084     dw      0x0084           	DW 0x84
000132   0089     dw      0x0089           	DW 0x89
000134   008e     dw      0x008e           	DW 0x8E
000136   0092     dw      0x0092           	DW 0x92
000138   0097     dw      0x0097           	DW 0x97
00013a   009c     dw      0x009c           	DW 0x9C
00013c   00a1     dw      0x00a1           	DW 0xA1
00013e   00a6     dw      0x00a6           	DW 0xA6
000140   00ab     dw      0x00ab           	DW 0xAB
000142   00b0     dw      0x00b0           	DW 0xB0
000144   00b5     dw      0x00b5           	DW 0xB5
000146   00ba     dw      0x00ba           	DW 0xBA
000148   00be     dw      0x00be           	DW 0xBE
00014a   00c3     dw      0x00c3           	DW 0xC3
00014c   00c8     dw      0x00c8           	DW 0xC8
00014e   00cd     dw      0x00cd           	DW 0xCD
000150   00d2     dw      0x00d2           	DW 0xD2
000152   00d7     dw      0x00d7           	DW 0xD7
000154   00dc     dw      0x00dc           	DW 0xDC
000156   00e1     tret                     	DW 0xE1
000158   00e5     dw      0x00e5           	DW 0xE5
00015a   00ea     dw      0x00ea           	DW 0xEA
00015c   00ef     dw      0x00ef           	DW 0xEF
00015e   00f4     dw      0x00f4           	DW 0xF4
000160   00f9     dw      0x00f9           	DW 0xF9
000162   00fe     dw      0x00fe           	DW 0xFE
000164   0103     movlb   0x3              	DW 0x103
000166   0108     movlb   0x8              	DW 0x108
000168   010d     movlb   0xd              	DW 0x10D
00016a   0111     dw      0x0111           	DW 0x111
00016c   0116     dw      0x0116           	DW 0x116
00016e   011b     dw      0x011b           	DW 0x11B
000170   0120     dw      0x0120           	DW 0x120
000172   0125     dw      0x0125           	DW 0x125
000174   012a     dw      0x012a           	DW 0x12A
000176   012f     dw      0x012f           	DW 0x12F
000178   0134     dw      0x0134           	DW 0x134
00017a   0139     dw      0x0139           	DW 0x139
00017c   013d     dw      0x013d           	DW 0x13D
00017e   0142     dw      0x0142           	DW 0x142
000180   0147     dw      0x0147           	DW 0x147
000182   014c     dw      0x014c           	DW 0x14C
000184   0151     dw      0x0151           	DW 0x151
000186   0156     dw      0x0156           	DW 0x156
000188   015b     dw      0x015b           	DW 0x15B
00018a   0160     dw      0x0160           	DW 0x160
00018c   0164     dw      0x0164           	DW 0x164
00018e   0169     dw      0x0169           	DW 0x169
000190   016e     dw      0x016e           	DW 0x16E
000192   0173     dw      0x0173           	DW 0x173
000194   0178     dw      0x0178           	DW 0x178
000196   017d     dw      0x017d           	DW 0x17D
000198   0182     dw      0x0182           	DW 0x182
00019a   0187     dw      0x0187           	DW 0x187
00019c   018c     dw      0x018c           	DW 0x18C
00019e   0190     dw      0x0190           	DW 0x190
0001a0   0195     dw      0x0195           	DW 0x195
0001a2   019a     dw      0x019a           	DW 0x19A
0001a4   019f     dw      0x019f           	DW 0x19F
0001a6   01a4     dw      0x01a4           	DW 0x1A4
0001a8   01a9     dw      0x01a9           	DW 0x1A9
0001aa   01ae     dw      0x01ae           	DW 0x1AE
0001ac   01b3     dw      0x01b3           	DW 0x1B3
0001ae   01b7     dw      0x01b7           	DW 0x1B7
0001b0   01bc     dw      0x01bc           	DW 0x1BC
0001b2   01c1     dw      0x01c1           	DW 0x1C1
0001b4   01c6     dw      0x01c6           	DW 0x1C6
0001b6   01cb     dw      0x01cb           	DW 0x1CB
0001b8   01d0     dw      0x01d0           	DW 0x1D0
0001ba   01d5     dw      0x01d5           	DW 0x1D5
0001bc   01da     dw      0x01da           	DW 0x1DA
0001be   01df     dw      0x01df           	DW 0x1DF
0001c0   01e3     dw      0x01e3           	DW 0x1E3
0001c2   01e8     dw      0x01e8           	DW 0x1E8
0001c4   01ed     dw      0x01ed           	DW 0x1ED
0001c6   01f2     dw      0x01f2           	DW 0x1F2
0001c8   01f7     dw      0x01f7           	DW 0x1F7
0001ca   01fc     dw      0x01fc           	DW 0x1FC
0001cc   0201     mulwf   0x01, 0x0        	DW 0x201
0001ce   0206     mulwf   0x06, 0x0        	DW 0x206
0001d0   020a     mulwf   0x0a, 0x0        	DW 0x20A
0001d2   020f     mulwf   0x0f, 0x0        	DW 0x20F
0001d4   0214     mulwf   0x14, 0x0        	DW 0x214
0001d6   0219     mulwf   0x19, 0x0        	DW 0x219
0001d8   021e     mulwf   0x1e, 0x0        	DW 0x21E
0001da   0223     mulwf   0x23, 0x0        	DW 0x223
0001dc   0228     mulwf   0x28, 0x0        	DW 0x228
0001de   022d     mulwf   0x2d, 0x0        	DW 0x22D
0001e0   0232     mulwf   0x32, 0x0        	DW 0x232
0001e2   0236     mulwf   0x36, 0x0        	DW 0x236
0001e4   023b     mulwf   0x3b, 0x0        	DW 0x23B
0001e6   0240     mulwf   0x40, 0x0        	DW 0x240
0001e8   0245     mulwf   0x45, 0x0        	DW 0x245
0001ea   024a     mulwf   0x4a, 0x0        	DW 0x24A
0001ec   024f     mulwf   0x4f, 0x0        	DW 0x24F
0001ee   0254     mulwf   0x54, 0x0        	DW 0x254
0001f0   0259     mulwf   0x59, 0x0        	DW 0x259
0001f2   025d     mulwf   0x5d, 0x0        	DW 0x25D
0001f4   0262     mulwf   0x62, 0x0        	DW 0x262
0001f6   0267     mulwf   0x67, 0x0        	DW 0x267
0001f8   026c     mulwf   0x6c, 0x0        	DW 0x26C
0001fa   0271     mulwf   0x71, 0x0        	DW 0x271
0001fc   0276     mulwf   0x76, 0x0        	DW 0x276
0001fe   027b     mulwf   0x7b, 0x0        	DW 0x27B
000200   0280     mulwf   0x80, 0x0        	DW 0x280
000202   0285     mulwf   0x85, 0x0        	DW 0x285
000204   0289     mulwf   0x89, 0x0        	DW 0x289
000206   028e     mulwf   0x8e, 0x0        	DW 0x28E
000208   0293     mulwf   0x93, 0x0        	DW 0x293
00020a   0298     mulwf   0x98, 0x0        	DW 0x298
00020c   029d     mulwf   0x9d, 0x0        	DW 0x29D
00020e   02a2     mulwf   0xa2, 0x0        	DW 0x2A2
000210   02a7     mulwf   0xa7, 0x0        	DW 0x2A7
000212   02ac     mulwf   0xac, 0x0        	DW 0x2AC
000214   02b0     mulwf   0xb0, 0x0        	DW 0x2B0
000216   02b5     mulwf   0xb5, 0x0        	DW 0x2B5
000218   02ba     mulwf   0xba, 0x0        	DW 0x2BA
00021a   02bf     mulwf   0xbf, 0x0        	DW 0x2BF
00021c   02c4     mulwf   0xc4, 0x0        	DW 0x2C4
00021e   02c9     mulwf   0xc9, 0x0        	DW 0x2C9
000220   02ce     mulwf   0xce, 0x0        	DW 0x2CE
000222   02d3     mulwf   0xd3, 0x0        	DW 0x2D3
000224   02d8     mulwf   0xd8, 0x0        	DW 0x2D8
000226   02dc     mulwf   0xdc, 0x0        	DW 0x2DC
000228   02e1     mulwf   0xe1, 0x0        	DW 0x2E1
00022a   02e6     mulwf   0xe6, 0x0        	DW 0x2E6
00022c   02eb     mulwf   0xeb, 0x0        	DW 0x2EB
00022e   02f0     mulwf   0xf0, 0x0        	DW 0x2F0
000230   02f5     mulwf   0xf5, 0x0        	DW 0x2F5
000232   02fa     mulwf   0xfa, 0x0        	DW 0x2FA
000234   02ff     mulwf   0xff, 0x0        	DW 0x2FF
000236   0303     mulwf   0x03, 0x1        	DW 0x303
000238   0308     mulwf   0x08, 0x1        	DW 0x308
00023a   030d     mulwf   0x0d, 0x1        	DW 0x30D
00023c   0312     mulwf   0x12, 0x1        	DW 0x312
00023e   0317     mulwf   0x17, 0x1        	DW 0x317
000240   031c     mulwf   0x1c, 0x1        	DW 0x31C
000242   0321     mulwf   0x21, 0x1        	DW 0x321
000244   0326     mulwf   0x26, 0x1        	DW 0x326
000246   032b     mulwf   0x2b, 0x1        	DW 0x32B
000248   032f     mulwf   0x2f, 0x1        	DW 0x32F
00024a   0334     mulwf   0x34, 0x1        	DW 0x334
00024c   0339     mulwf   0x39, 0x1        	DW 0x339
00024e   033e     mulwf   0x3e, 0x1        	DW 0x33E
000250   0343     mulwf   0x43, 0x1        	DW 0x343
000252   0348     mulwf   0x48, 0x1        	DW 0x348
000254   034d     mulwf   0x4d, 0x1        	DW 0x34D
000256   0352     mulwf   0x52, 0x1        	DW 0x352
000258   0356     mulwf   0x56, 0x1        	DW 0x356
00025a   035b     mulwf   0x5b, 0x1        	DW 0x35B
00025c   0360     mulwf   0x60, 0x1        	DW 0x360
00025e   0365     mulwf   0x65, 0x1        	DW 0x365
000260   036a     mulwf   0x6a, 0x1        	DW 0x36A
000262   036f     mulwf   0x6f, 0x1        	DW 0x36F
000264   0374     mulwf   0x74, 0x1        	DW 0x374
000266   0379     mulwf   0x79, 0x1        	DW 0x379
000268   037e     mulwf   0x7e, 0x1        	DW 0x37E
00026a   0382     mulwf   0x82, 0x1        	DW 0x382
00026c   0387     mulwf   0x87, 0x1        	DW 0x387
00026e   038c     mulwf   0x8c, 0x1        	DW 0x38C
000270   0391     mulwf   0x91, 0x1        	DW 0x391
000272   0396     mulwf   0x96, 0x1        	DW 0x396
000274   039b     mulwf   0x9b, 0x1        	DW 0x39B
000276   03a0     mulwf   0xa0, 0x1        	DW 0x3A0
000278   03a5     mulwf   0xa5, 0x1        	DW 0x3A5
00027a   03aa     mulwf   0xaa, 0x1        	DW 0x3AA
00027c   03ae     mulwf   0xae, 0x1        	DW 0x3AE
00027e   03b3     mulwf   0xb3, 0x1        	DW 0x3B3
000280   03b8     mulwf   0xb8, 0x1        	DW 0x3B8
000282   03bd     mulwf   0xbd, 0x1        	DW 0x3BD
000284   03c2     mulwf   0xc2, 0x1        	DW 0x3C2
000286   03c7     mulwf   0xc7, 0x1        	DW 0x3C7
000288   03cc     mulwf   0xcc, 0x1        	DW 0x3CC
00028a   03d1     mulwf   0xd1, 0x1        	DW 0x3D1
00028c   03d5     mulwf   0xd5, 0x1        	DW 0x3D5
00028e   03da     mulwf   0xda, 0x1        	DW 0x3DA
000290   03df     mulwf   0xdf, 0x1        	DW 0x3DF
000292   03e4     mulwf   0xe4, 0x1        	DW 0x3E4
000294   03e9     mulwf   0xe9, 0x1        	DW 0x3E9
000296   03ee     mulwf   0xee, 0x1        	DW 0x3EE
000298   03f3     mulwf   0xf3, 0x1        	DW 0x3F3
00029a   03f8     mulwf   0xf8, 0x1        	DW 0x3F8
00029c   03fd     mulwf   0xfd, 0x1        	DW 0x3FD
00029e   0401     decf    0x01, 0x0, 0x0   	DW 0x401
0002a0   0406     decf    0x06, 0x0, 0x0   	DW 0x406
0002a2   040b     decf    0x0b, 0x0, 0x0   	DW 0x40B
0002a4   0410     decf    0x10, 0x0, 0x0   	DW 0x410
0002a6   0415     decf    0x15, 0x0, 0x0   	DW 0x415
0002a8   041a     decf    0x1a, 0x0, 0x0   	DW 0x41A
0002aa   041f     decf    0x1f, 0x0, 0x0   	DW 0x41F
0002ac   0424     decf    0x24, 0x0, 0x0   	DW 0x424
0002ae   0428     decf    0x28, 0x0, 0x0   	DW 0x428
0002b0   042d     decf    0x2d, 0x0, 0x0   	DW 0x42D
0002b2   0432     decf    0x32, 0x0, 0x0   	DW 0x432
0002b4   0437     decf    0x37, 0x0, 0x0   	DW 0x437
0002b6   043c     decf    0x3c, 0x0, 0x0   	DW 0x43C
0002b8   0441     decf    0x41, 0x0, 0x0   	DW 0x441
0002ba   0446     decf    0x46, 0x0, 0x0   	DW 0x446
0002bc   044b     decf    0x4b, 0x0, 0x0   	DW 0x44B
0002be   0450     decf    0x50, 0x0, 0x0   	DW 0x450
0002c0   0454     decf    0x54, 0x0, 0x0   	DW 0x454
0002c2   0459     decf    0x59, 0x0, 0x0   	DW 0x459
0002c4   045e     decf    0x5e, 0x0, 0x0   	DW 0x45E
0002c6   0463     decf    0x63, 0x0, 0x0   	DW 0x463
0002c8   0468     decf    0x68, 0x0, 0x0   	DW 0x468
0002ca   046d     decf    0x6d, 0x0, 0x0   	DW 0x46D
0002cc   0472     decf    0x72, 0x0, 0x0   	DW 0x472
0002ce   0477     decf    0x77, 0x0, 0x0   	DW 0x477
0002d0   047b     decf    0x7b, 0x0, 0x0   	DW 0x47B
0002d2   0480     decf    0x80, 0x0, 0x0   	DW 0x480
0002d4   0485     decf    0x85, 0x0, 0x0   	DW 0x485
0002d6   048a     decf    0x8a, 0x0, 0x0   	DW 0x48A
0002d8   048f     decf    0x8f, 0x0, 0x0   	DW 0x48F
0002da   0494     decf    0x94, 0x0, 0x0   	DW 0x494
0002dc   0499     decf    0x99, 0x0, 0x0   	DW 0x499
0002de   049e     decf    0x9e, 0x0, 0x0   	DW 0x49E
0002e0   04a3     decf    0xa3, 0x0, 0x0   	DW 0x4A3
0002e2   04a7     decf    0xa7, 0x0, 0x0   	DW 0x4A7
0002e4   04ac     decf    0xac, 0x0, 0x0   	DW 0x4AC
0002e6   04b1     decf    0xb1, 0x0, 0x0   	DW 0x4B1
0002e8   04b6     decf    0xb6, 0x0, 0x0   	DW 0x4B6
0002ea   04bb     decf    0xbb, 0x0, 0x0   	DW 0x4BB
0002ec   04c0     decf    0xc0, 0x0, 0x0   	DW 0x4C0
0002ee   04c5     decf    0xc5, 0x0, 0x0   	DW 0x4C5
0002f0   04ca     decf    0xca, 0x0, 0x0   	DW 0x4CA
0002f2   04ce     decf    0xce, 0x0, 0x0   	DW 0x4CE
0002f4   04d3     decf    0xd3, 0x0, 0x0   	DW 0x4D3
0002f6   04d8     decf    0xd8, 0x0, 0x0   	DW 0x4D8
0002f8   04dd     decf    0xdd, 0x0, 0x0   	DW 0x4DD
0002fa   04e2     decf    0xe2, 0x0, 0x0   	DW 0x4E2
0002fc   04e7     decf    0xe7, 0x0, 0x0   	DW 0x4E7
0002fe   04ec     decf    0xec, 0x0, 0x0   	DW 0x4EC
000300   04f1     decf    0xf1, 0x0, 0x0   	DW 0x4F1
000302   04f6     decf    0xf6, 0x0, 0x0   	DW 0x4F6
000304   04fa     decf    0xfa, 0x0, 0x0   	DW 0x4FA
000306   04ff     decf    0xff, 0x0, 0x0   	DW 0x4FF
000308   0504     decf    0x04, 0x0, 0x1   	DW 0x504
00030a   0509     decf    0x09, 0x0, 0x1   	DW 0x509
00030c   050e     decf    0x0e, 0x0, 0x1   	DW 0x50E
00030e   0513     decf    0x13, 0x0, 0x1   	DW 0x513
000310   0518     decf    0x18, 0x0, 0x1   	DW 0x518
000312   051d     decf    0x1d, 0x0, 0x1   	DW 0x51D
000314   0521     decf    0x21, 0x0, 0x1   	DW 0x521
000316   0526     decf    0x26, 0x0, 0x1   	DW 0x526
000318   052b     decf    0x2b, 0x0, 0x1   	DW 0x52B
00031a   0530     decf    0x30, 0x0, 0x1   	DW 0x530
00031c   0535     decf    0x35, 0x0, 0x1   	DW 0x535
00031e   053a     decf    0x3a, 0x0, 0x1   	DW 0x53A
000320   053f     decf    0x3f, 0x0, 0x1   	DW 0x53F
000322   0544     decf    0x44, 0x0, 0x1   	DW 0x544
000324   0549     decf    0x49, 0x0, 0x1   	DW 0x549
000326   054d     decf    0x4d, 0x0, 0x1   	DW 0x54D
000328   0552     decf    0x52, 0x0, 0x1   	DW 0x552
00032a   0557     decf    0x57, 0x0, 0x1   	DW 0x557
00032c   055c     decf    0x5c, 0x0, 0x1   	DW 0x55C
00032e   0561     decf    0x61, 0x0, 0x1   	DW 0x561
000330   0566     decf    0x66, 0x0, 0x1   	DW 0x566
000332   056b     decf    0x6b, 0x0, 0x1   	DW 0x56B
000334   0570     decf    0x70, 0x0, 0x1   	DW 0x570
000336   0574     decf    0x74, 0x0, 0x1   	DW 0x574
000338   0579     decf    0x79, 0x0, 0x1   	DW 0x579
00033a   057e     decf    0x7e, 0x0, 0x1   	DW 0x57E
00033c   0583     decf    0x83, 0x0, 0x1   	DW 0x583
00033e   0588     decf    0x88, 0x0, 0x1   	DW 0x588
000340   058d     decf    0x8d, 0x0, 0x1   	DW 0x58D
000342   0592     decf    0x92, 0x0, 0x1   	DW 0x592
000344   0597     decf    0x97, 0x0, 0x1   	DW 0x597
000346   059c     decf    0x9c, 0x0, 0x1   	DW 0x59C
000348   05a0     decf    0xa0, 0x0, 0x1   	DW 0x5A0
00034a   05a5     decf    0xa5, 0x0, 0x1   	DW 0x5A5
00034c   05aa     decf    0xaa, 0x0, 0x1   	DW 0x5AA
00034e   05af     decf    0xaf, 0x0, 0x1   	DW 0x5AF
000350   05b4     decf    0xb4, 0x0, 0x1   	DW 0x5B4
000352   05b9     decf    0xb9, 0x0, 0x1   	DW 0x5B9
000354   05be     decf    0xbe, 0x0, 0x1   	DW 0x5BE
000356   05c3     decf    0xc3, 0x0, 0x1   	DW 0x5C3
000358   05c7     decf    0xc7, 0x0, 0x1   	DW 0x5C7
00035a   05cc     decf    0xcc, 0x0, 0x1   	DW 0x5CC
00035c   05d1     decf    0xd1, 0x0, 0x1   	DW 0x5D1
00035e   05d6     decf    0xd6, 0x0, 0x1   	DW 0x5D6
000360   05db     decf    0xdb, 0x0, 0x1   	DW 0x5DB
000362   05e0     decf    0xe0, 0x0, 0x1   	DW 0x5E0
000364   05e5     decf    0xe5, 0x0, 0x1   	DW 0x5E5
000366   05ea     decf    0xea, 0x0, 0x1   	DW 0x5EA
000368   05ef     decf    0xef, 0x0, 0x1   	DW 0x5EF
00036a   05f3     decf    0xf3, 0x0, 0x1   	DW 0x5F3
00036c   05f8     decf    0xf8, 0x0, 0x1   	DW 0x5F8
00036e   05fd     decf    0xfd, 0x0, 0x1   	DW 0x5FD
000370   0602     decf    0x02, 0x1, 0x0   	DW 0x602
000372   0607     decf    0x07, 0x1, 0x0   	DW 0x607
000374   060c     decf    0x0c, 0x1, 0x0   	DW 0x60C
000376   0611     decf    0x11, 0x1, 0x0   	DW 0x611
000378   0616     decf    0x16, 0x1, 0x0   	DW 0x616
00037a   061b     decf    0x1b, 0x1, 0x0   	DW 0x61B
00037c   061f     decf    0x1f, 0x1, 0x0   	DW 0x61F
00037e   0624     decf    0x24, 0x1, 0x0   	DW 0x624
000380   0629     decf    0x29, 0x1, 0x0   	DW 0x629
000382   062e     decf    0x2e, 0x1, 0x0   	DW 0x62E
000384   0633     decf    0x33, 0x1, 0x0   	DW 0x633
000386   0638     decf    0x38, 0x1, 0x0   	DW 0x638
000388   063d     decf    0x3d, 0x1, 0x0   	DW 0x63D
00038a   0642     decf    0x42, 0x1, 0x0   	DW 0x642
00038c   0646     decf    0x46, 0x1, 0x0   	DW 0x646
00038e   064b     decf    0x4b, 0x1, 0x0   	DW 0x64B
000390   0650     decf    0x50, 0x1, 0x0   	DW 0x650
000392   0655     decf    0x55, 0x1, 0x0   	DW 0x655
000394   065a     decf    0x5a, 0x1, 0x0   	DW 0x65A
000396   065f     decf    0x5f, 0x1, 0x0   	DW 0x65F
000398   0664     decf    0x64, 0x1, 0x0   	DW 0x664
00039a   0669     decf    0x69, 0x1, 0x0   	DW 0x669
00039c   066e     decf    0x6e, 0x1, 0x0   	DW 0x66E
00039e   0672     decf    0x72, 0x1, 0x0   	DW 0x672
0003a0   0677     decf    0x77, 0x1, 0x0   	DW 0x677
0003a2   067c     decf    0x7c, 0x1, 0x0   	DW 0x67C
0003a4   0681     decf    0x81, 0x1, 0x0   	DW 0x681
0003a6   0686     decf    0x86, 0x1, 0x0   	DW 0x686
0003a8   068b     decf    0x8b, 0x1, 0x0   	DW 0x68B
0003aa   0690     decf    0x90, 0x1, 0x0   	DW 0x690
0003ac   0695     decf    0x95, 0x1, 0x0   	DW 0x695
0003ae   0699     decf    0x99, 0x1, 0x0   	DW 0x699
0003b0   069e     decf    0x9e, 0x1, 0x0   	DW 0x69E
0003b2   06a3     decf    0xa3, 0x1, 0x0   	DW 0x6A3
0003b4   06a8     decf    0xa8, 0x1, 0x0   	DW 0x6A8
0003b6   06ad     decf    0xad, 0x1, 0x0   	DW 0x6AD
0003b8   06b2     decf    0xb2, 0x1, 0x0   	DW 0x6B2
0003ba   06b7     decf    0xb7, 0x1, 0x0   	DW 0x6B7
0003bc   06bc     decf    0xbc, 0x1, 0x0   	DW 0x6BC
0003be   06c1     decf    0xc1, 0x1, 0x0   	DW 0x6C1
0003c0   06c5     decf    0xc5, 0x1, 0x0   	DW 0x6C5
0003c2   06ca     decf    0xca, 0x1, 0x0   	DW 0x6CA
0003c4   06cf     decf    0xcf, 0x1, 0x0   	DW 0x6CF
0003c6   06d4     decf    0xd4, 0x1, 0x0   	DW 0x6D4
0003c8   06d9     decf    0xd9, 0x1, 0x0   	DW 0x6D9
0003ca   06de     decf    0xde, 0x1, 0x0   	DW 0x6DE
0003cc   06e3     decf    0xe3, 0x1, 0x0   	DW 0x6E3
0003ce   06e8     decf    0xe8, 0x1, 0x0   	DW 0x6E8
0003d0   06ec     decf    0xec, 0x1, 0x0   	DW 0x6EC
0003d2   06f1     decf    0xf1, 0x1, 0x0   	DW 0x6F1
0003d4   06f6     decf    0xf6, 0x1, 0x0   	DW 0x6F6
0003d6   06fb     decf    0xfb, 0x1, 0x0   	DW 0x6FB
0003d8   0700     decf    0x00, 0x1, 0x1   	DW 0x700
0003da   0705     decf    0x05, 0x1, 0x1   	DW 0x705
0003dc   070a     decf    0x0a, 0x1, 0x1   	DW 0x70A
0003de   070f     decf    0x0f, 0x1, 0x1   	DW 0x70F
0003e0   0714     decf    0x14, 0x1, 0x1   	DW 0x714
0003e2   0718     decf    0x18, 0x1, 0x1   	DW 0x718
0003e4   071d     decf    0x1d, 0x1, 0x1   	DW 0x71D
0003e6   0722     decf    0x22, 0x1, 0x1   	DW 0x722
0003e8   0727     decf    0x27, 0x1, 0x1   	DW 0x727
0003ea   072c     decf    0x2c, 0x1, 0x1   	DW 0x72C
0003ec   0731     decf    0x31, 0x1, 0x1   	DW 0x731
0003ee   0736     decf    0x36, 0x1, 0x1   	DW 0x736
0003f0   073b     decf    0x3b, 0x1, 0x1   	DW 0x73B
0003f2   073f     decf    0x3f, 0x1, 0x1   	DW 0x73F
0003f4   0744     decf    0x44, 0x1, 0x1   	DW 0x744
0003f6   0749     decf    0x49, 0x1, 0x1   	DW 0x749
0003f8   074e     decf    0x4e, 0x1, 0x1   	DW 0x74E
0003fa   0753     decf    0x53, 0x1, 0x1   	DW 0x753
0003fc   0758     decf    0x58, 0x1, 0x1   	DW 0x758
0003fe   075d     decf    0x5d, 0x1, 0x1   	DW 0x75D
000400   0762     decf    0x62, 0x1, 0x1   	DW 0x762
000402   0767     decf    0x67, 0x1, 0x1   	DW 0x767
000404   076b     decf    0x6b, 0x1, 0x1   	DW 0x76B
000406   0770     decf    0x70, 0x1, 0x1   	DW 0x770
000408   0775     decf    0x75, 0x1, 0x1   	DW 0x775
00040a   077a     decf    0x7a, 0x1, 0x1   	DW 0x77A
00040c   077f     decf    0x7f, 0x1, 0x1   	DW 0x77F
00040e   0784     decf    0x84, 0x1, 0x1   	DW 0x784
000410   0789     decf    0x89, 0x1, 0x1   	DW 0x789
000412   078e     decf    0x8e, 0x1, 0x1   	DW 0x78E
000414   0792     decf    0x92, 0x1, 0x1   	DW 0x792
000416   0797     decf    0x97, 0x1, 0x1   	DW 0x797
000418   079c     decf    0x9c, 0x1, 0x1   	DW 0x79C
00041a   07a1     decf    0xa1, 0x1, 0x1   	DW 0x7A1
00041c   07a6     decf    0xa6, 0x1, 0x1   	DW 0x7A6
00041e   07ab     decf    0xab, 0x1, 0x1   	DW 0x7AB
000420   07b0     decf    0xb0, 0x1, 0x1   	DW 0x7B0
000422   07b5     decf    0xb5, 0x1, 0x1   	DW 0x7B5
000424   07ba     decf    0xba, 0x1, 0x1   	DW 0x7BA
000426   07be     decf    0xbe, 0x1, 0x1   	DW 0x7BE
000428   07c3     decf    0xc3, 0x1, 0x1   	DW 0x7C3
00042a   07c8     decf    0xc8, 0x1, 0x1   	DW 0x7C8
00042c   07cd     decf    0xcd, 0x1, 0x1   	DW 0x7CD
00042e   07d2     decf    0xd2, 0x1, 0x1   	DW 0x7D2
000430   07d7     decf    0xd7, 0x1, 0x1   	DW 0x7D7
000432   07dc     decf    0xdc, 0x1, 0x1   	DW 0x7DC
000434   07e1     decf    0xe1, 0x1, 0x1   	DW 0x7E1
000436   07e5     decf    0xe5, 0x1, 0x1   	DW 0x7E5
000438   07ea     decf    0xea, 0x1, 0x1   	DW 0x7EA
00043a   07ef     decf    0xef, 0x1, 0x1   	DW 0x7EF
00043c   07f4     decf    0xf4, 0x1, 0x1   	DW 0x7F4
00043e   07f9     decf    0xf9, 0x1, 0x1   	DW 0x7F9
000440   07fe     decf    0xfe, 0x1, 0x1   	DW 0x7FE
000442   0803     sublw   0x03             	DW 0x803
000444   0808     sublw   0x08             	DW 0x808
000446   080d     sublw   0x0d             	DW 0x80D
000448   0811     sublw   0x11             	DW 0x811
00044a   0816     sublw   0x16             	DW 0x816
00044c   081b     sublw   0x1b             	DW 0x81B
00044e   0820     sublw   0x20             	DW 0x820
000450   0825     sublw   0x25             	DW 0x825
000452   082a     sublw   0x2a             	DW 0x82A
000454   082f     sublw   0x2f             	DW 0x82F
000456   0834     sublw   0x34             	DW 0x834
000458   0838     sublw   0x38             	DW 0x838
00045a   083d     sublw   0x3d             	DW 0x83D
00045c   0842     sublw   0x42             	DW 0x842
00045e   0847     sublw   0x47             	DW 0x847
000460   084c     sublw   0x4c             	DW 0x84C
000462   0851     sublw   0x51             	DW 0x851
000464   0856     sublw   0x56             	DW 0x856
000466   085b     sublw   0x5b             	DW 0x85B
000468   0860     sublw   0x60             	DW 0x860
00046a   0864     sublw   0x64             	DW 0x864
00046c   0869     sublw   0x69             	DW 0x869
00046e   086e     sublw   0x6e             	DW 0x86E
000470   0873     sublw   0x73             	DW 0x873
000472   0878     sublw   0x78             	DW 0x878
000474   087d     sublw   0x7d             	DW 0x87D
000476   0882     sublw   0x82             	DW 0x882
000478   0887     sublw   0x87             	DW 0x887
00047a   088c     sublw   0x8c             	DW 0x88C
00047c   0890     sublw   0x90             	DW 0x890
00047e   0895     sublw   0x95             	DW 0x895
000480   089a     sublw   0x9a             	DW 0x89A
000482   089f     sublw   0x9f             	DW 0x89F
000484   08a4     sublw   0xa4             	DW 0x8A4
000486   08a9     sublw   0xa9             	DW 0x8A9
000488   08ae     sublw   0xae             	DW 0x8AE
00048a   08b3     sublw   0xb3             	DW 0x8B3
00048c   08b7     sublw   0xb7             	DW 0x8B7
00048e   08bc     sublw   0xbc             	DW 0x8BC
000490   08c1     sublw   0xc1             	DW 0x8C1
000492   08c6     sublw   0xc6             	DW 0x8C6
000494   08cb     sublw   0xcb             	DW 0x8CB
000496   08d0     sublw   0xd0             	DW 0x8D0
000498   08d5     sublw   0xd5             	DW 0x8D5
00049a   08da     sublw   0xda             	DW 0x8DA
00049c   08df     sublw   0xdf             	DW 0x8DF
00049e   08e3     sublw   0xe3             	DW 0x8E3
0004a0   08e8     sublw   0xe8             	DW 0x8E8
0004a2   08ed     sublw   0xed             	DW 0x8ED
0004a4   08f2     sublw   0xf2             	DW 0x8F2
0004a6   08f7     sublw   0xf7             	DW 0x8F7
0004a8   08fc     sublw   0xfc             	DW 0x8FC
0004aa   0901     iorlw   0x01             	DW 0x901
0004ac   0906     iorlw   0x06             	DW 0x906
0004ae   090a     iorlw   0x0a             	DW 0x90A
0004b0   090f     iorlw   0x0f             	DW 0x90F
0004b2   0914     iorlw   0x14             	DW 0x914
0004b4   0919     iorlw   0x19             	DW 0x919
0004b6   091e     iorlw   0x1e             	DW 0x91E
0004b8   0923     iorlw   0x23             	DW 0x923
0004ba   0928     iorlw   0x28             	DW 0x928
0004bc   092d     iorlw   0x2d             	DW 0x92D
0004be   0932     iorlw   0x32             	DW 0x932
0004c0   0936     iorlw   0x36             	DW 0x936
0004c2   093b     iorlw   0x3b             	DW 0x93B
0004c4   0940     iorlw   0x40             	DW 0x940
0004c6   0945     iorlw   0x45             	DW 0x945
0004c8   094a     iorlw   0x4a             	DW 0x94A
0004ca   094f     iorlw   0x4f             	DW 0x94F
0004cc   0954     iorlw   0x54             	DW 0x954
0004ce   0959     iorlw   0x59             	DW 0x959
0004d0   095d     iorlw   0x5d             	DW 0x95D
0004d2   0962     iorlw   0x62             	DW 0x962
0004d4   0967     iorlw   0x67             	DW 0x967
0004d6   096c     iorlw   0x6c             	DW 0x96C
0004d8   0971     iorlw   0x71             	DW 0x971
0004da   0976     iorlw   0x76             	DW 0x976
0004dc   097b     iorlw   0x7b             	DW 0x97B
0004de   0980     iorlw   0x80             	DW 0x980
0004e0   0985     iorlw   0x85             	DW 0x985
0004e2   0989     iorlw   0x89             	DW 0x989
0004e4   098e     iorlw   0x8e             	DW 0x98E
0004e6   0993     iorlw   0x93             	DW 0x993
0004e8   0998     iorlw   0x98             	DW 0x998
0004ea   099d     iorlw   0x9d             	DW 0x99D
0004ec   09a2     iorlw   0xa2             	DW 0x9A2
0004ee   09a7     iorlw   0xa7             	DW 0x9A7
0004f0   09ac     iorlw   0xac             	DW 0x9AC
0004f2   09b0     iorlw   0xb0             	DW 0x9B0
0004f4   09b5     iorlw   0xb5             	DW 0x9B5
0004f6   09ba     iorlw   0xba             	DW 0x9BA
0004f8   09bf     iorlw   0xbf             	DW 0x9BF
0004fa   09c4     iorlw   0xc4             	DW 0x9C4
0004fc   09c9     iorlw   0xc9             	DW 0x9C9
0004fe   09ce     iorlw   0xce             	DW 0x9CE
000500   09d3     iorlw   0xd3             	DW 0x9D3
000502   09d8     iorlw   0xd8             	DW 0x9D8
000504   09dc     iorlw   0xdc             	DW 0x9DC
000506   09e1     iorlw   0xe1             	DW 0x9E1
000508   09e6     iorlw   0xe6             	DW 0x9E6
00050a   09eb     iorlw   0xeb             	DW 0x9EB
00050c   09f0     iorlw   0xf0             	DW 0x9F0
00050e   09f5     iorlw   0xf5             	DW 0x9F5
000510   09fa     iorlw   0xfa             	DW 0x9FA
000512   09ff     iorlw   0xff             	DW 0x9FF
000514   0a03     xorlw   0x03             	DW 0xA03
000516   0a08     xorlw   0x08             	DW 0xA08
000518   0a0d     xorlw   0x0d             	DW 0xA0D
00051a   0a12     xorlw   0x12             	DW 0xA12
00051c   0a17     xorlw   0x17             	DW 0xA17
00051e   0a1c     xorlw   0x1c             	DW 0xA1C
000520   0a21     xorlw   0x21             	DW 0xA21
000522   0a26     xorlw   0x26             	DW 0xA26
000524   0a2b     xorlw   0x2b             	DW 0xA2B
000526   0a2f     xorlw   0x2f             	DW 0xA2F
000528   0a34     xorlw   0x34             	DW 0xA34
00052a   0a39     xorlw   0x39             	DW 0xA39
00052c   0a3e     xorlw   0x3e             	DW 0xA3E
00052e   0a43     xorlw   0x43             	DW 0xA43
000530   0a48     xorlw   0x48             	DW 0xA48
000532   0a4d     xorlw   0x4d             	DW 0xA4D
000534   0a52     xorlw   0x52             	DW 0xA52
000536   0a56     xorlw   0x56             	DW 0xA56
000538   0a5b     xorlw   0x5b             	DW 0xA5B
00053a   0a60     xorlw   0x60             	DW 0xA60
00053c   0a65     xorlw   0x65             	DW 0xA65
00053e   0a6a     xorlw   0x6a             	DW 0xA6A
000540   0a6f     xorlw   0x6f             	DW 0xA6F
000542   0a74     xorlw   0x74             	DW 0xA74
000544   0a79     xorlw   0x79             	DW 0xA79
000546   0a7e     xorlw   0x7e             	DW 0xA7E
000548   0a82     xorlw   0x82             	DW 0xA82
00054a   0a87     xorlw   0x87             	DW 0xA87
00054c   0a8c     xorlw   0x8c             	DW 0xA8C
00054e   0a91     xorlw   0x91             	DW 0xA91
000550   0a96     xorlw   0x96             	DW 0xA96
000552   0a9b     xorlw   0x9b             	DW 0xA9B
000554   0aa0     xorlw   0xa0             	DW 0xAA0
000556   0aa5     xorlw   0xa5             	DW 0xAA5
000558   0aa9     xorlw   0xa9             	DW 0xAA9
00055a   0aae     xorlw   0xae             	DW 0xAAE
00055c   0ab3     xorlw   0xb3             	DW 0xAB3
00055e   0ab8     xorlw   0xb8             	DW 0xAB8
000560   0abd     xorlw   0xbd             	DW 0xABD
000562   0ac2     xorlw   0xc2             	DW 0xAC2
000564   0ac7     xorlw   0xc7             	DW 0xAC7
000566   0acc     xorlw   0xcc             	DW 0xACC
000568   0ad1     xorlw   0xd1             	DW 0xAD1
00056a   0ad5     xorlw   0xd5             	DW 0xAD5
00056c   0ada     xorlw   0xda             	DW 0xADA
00056e   0adf     xorlw   0xdf             	DW 0xADF
000570   0ae4     xorlw   0xe4             	DW 0xAE4
000572   0ae9     xorlw   0xe9             	DW 0xAE9
000574   0aee     xorlw   0xee             	DW 0xAEE
000576   0af3     xorlw   0xf3             	DW 0xAF3
000578   0af8     xorlw   0xf8             	DW 0xAF8
00057a   0afd     xorlw   0xfd             	DW 0xAFD
00057c   0b01     andlw   0x01             	DW 0xB01
00057e   0b06     andlw   0x06             	DW 0xB06
000580   0b0b     andlw   0x0b             	DW 0xB0B
000582   0b10     andlw   0x10             	DW 0xB10
000584   0b15     andlw   0x15             	DW 0xB15
000586   0b1a     andlw   0x1a             	DW 0xB1A
000588   0b1f     andlw   0x1f             	DW 0xB1F
00058a   0b24     andlw   0x24             	DW 0xB24
00058c   0b28     andlw   0x28             	DW 0xB28
00058e   0b2d     andlw   0x2d             	DW 0xB2D
000590   0b32     andlw   0x32             	DW 0xB32
000592   0b37     andlw   0x37             	DW 0xB37
000594   0b3c     andlw   0x3c             	DW 0xB3C
000596   0b41     andlw   0x41             	DW 0xB41
000598   0b46     andlw   0x46             	DW 0xB46
00059a   0b4b     andlw   0x4b             	DW 0xB4B
00059c   0b50     andlw   0x50             	DW 0xB50
00059e   0b54     andlw   0x54             	DW 0xB54
0005a0   0b59     andlw   0x59             	DW 0xB59
0005a2   0b5e     andlw   0x5e             	DW 0xB5E
0005a4   0b63     andlw   0x63             	DW 0xB63
0005a6   0b68     andlw   0x68             	DW 0xB68
0005a8   0b6d     andlw   0x6d             	DW 0xB6D
0005aa   0b72     andlw   0x72             	DW 0xB72
0005ac   0b77     andlw   0x77             	DW 0xB77
0005ae   0b7b     andlw   0x7b             	DW 0xB7B
0005b0   0b80     andlw   0x80             	DW 0xB80
0005b2   0b85     andlw   0x85             	DW 0xB85
0005b4   0b8a     andlw   0x8a             	DW 0xB8A
0005b6   0b8f     andlw   0x8f             	DW 0xB8F
0005b8   0b94     andlw   0x94             	DW 0xB94
0005ba   0b99     andlw   0x99             	DW 0xB99
0005bc   0b9e     andlw   0x9e             	DW 0xB9E
0005be   0ba3     andlw   0xa3             	DW 0xBA3
0005c0   0ba7     andlw   0xa7             	DW 0xBA7
0005c2   0bac     andlw   0xac             	DW 0xBAC
0005c4   0bb1     andlw   0xb1             	DW 0xBB1
0005c6   0bb6     andlw   0xb6             	DW 0xBB6
0005c8   0bbb     andlw   0xbb             	DW 0xBBB
0005ca   0bc0     andlw   0xc0             	DW 0xBC0
0005cc   0bc5     andlw   0xc5             	DW 0xBC5
0005ce   0bca     andlw   0xca             	DW 0xBCA
0005d0   0bce     andlw   0xce             	DW 0xBCE
0005d2   0bd3     andlw   0xd3             	DW 0xBD3
0005d4   0bd8     andlw   0xd8             	DW 0xBD8
0005d6   0bdd     andlw   0xdd             	DW 0xBDD
0005d8   0be2     andlw   0xe2             	DW 0xBE2
0005da   0be7     andlw   0xe7             	DW 0xBE7
0005dc   0bec     andlw   0xec             	DW 0xBEC
0005de   0bf1     andlw   0xf1             	DW 0xBF1
0005e0   0bf6     andlw   0xf6             	DW 0xBF6
0005e2   0bfa     andlw   0xfa             	DW 0xBFA
0005e4   0bff     andlw   0xff             	DW 0xBFF
0005e6   0c04     retlw   0x04             	DW 0xC04
0005e8   0c09     retlw   0x09             	DW 0xC09
0005ea   0c0e     retlw   0x0e             	DW 0xC0E
0005ec   0c13     retlw   0x13             	DW 0xC13
0005ee   0c18     retlw   0x18             	DW 0xC18
0005f0   0c1d     retlw   0x1d             	DW 0xC1D
0005f2   0c21     retlw   0x21             	DW 0xC21
0005f4   0c26     retlw   0x26             	DW 0xC26
0005f6   0c2b     retlw   0x2b             	DW 0xC2B
0005f8   0c30     retlw   0x30             	DW 0xC30
0005fa   0c35     retlw   0x35             	DW 0xC35
0005fc   0c3a     retlw   0x3a             	DW 0xC3A
0005fe   0c3f     retlw   0x3f             	DW 0xC3F
000600   0c44     retlw   0x44             	DW 0xC44
000602   0c49     retlw   0x49             	DW 0xC49
000604   0c4d     retlw   0x4d             	DW 0xC4D
000606   0c52     retlw   0x52             	DW 0xC52
000608   0c57     retlw   0x57             	DW 0xC57
00060a   0c5c     retlw   0x5c             	DW 0xC5C
00060c   0c61     retlw   0x61             	DW 0xC61
00060e   0c66     retlw   0x66             	DW 0xC66
000610   0c6b     retlw   0x6b             	DW 0xC6B
000612   0c70     retlw   0x70             	DW 0xC70
000614   0c74     retlw   0x74             	DW 0xC74
000616   0c79     retlw   0x79             	DW 0xC79
000618   0c7e     retlw   0x7e             	DW 0xC7E
00061a   0c83     retlw   0x83             	DW 0xC83
00061c   0c88     retlw   0x88             	DW 0xC88
00061e   0c8d     retlw   0x8d             	DW 0xC8D
000620   0c92     retlw   0x92             	DW 0xC92
000622   0c97     retlw   0x97             	DW 0xC97
000624   0c9c     retlw   0x9c             	DW 0xC9C
000626   0ca0     retlw   0xa0             	DW 0xCA0
000628   0ca5     retlw   0xa5             	DW 0xCA5
00062a   0caa     retlw   0xaa             	DW 0xCAA
00062c   0caf     retlw   0xaf             	DW 0xCAF
00062e   0cb4     retlw   0xb4             	DW 0xCB4
000630   0cb9     retlw   0xb9             	DW 0xCB9
000632   0cbe     retlw   0xbe             	DW 0xCBE
000634   0cc3     retlw   0xc3             	DW 0xCC3
000636   0cc7     retlw   0xc7             	DW 0xCC7
000638   0ccc     retlw   0xcc             	DW 0xCCC
00063a   0cd1     retlw   0xd1             	DW 0xCD1
00063c   0cd6     retlw   0xd6             	DW 0xCD6
00063e   0cdb     retlw   0xdb             	DW 0xCDB
000640   0ce0     retlw   0xe0             	DW 0xCE0
000642   0ce5     retlw   0xe5             	DW 0xCE5
000644   0cea     retlw   0xea             	DW 0xCEA
000646   0cef     retlw   0xef             	DW 0xCEF
000648   0cf3     retlw   0xf3             	DW 0xCF3
00064a   0cf8     retlw   0xf8             	DW 0xCF8
00064c   0cfd     retlw   0xfd             	DW 0xCFD
00064e   0d02     mullw   0x02             	DW 0xD02
000650   0d07     mullw   0x07             	DW 0xD07
000652   0d0c     mullw   0x0c             	DW 0xD0C
000654   0d11     mullw   0x11             	DW 0xD11
000656   0d16     mullw   0x16             	DW 0xD16
000658   0d1a     mullw   0x1a             	DW 0xD1A
00065a   0d1f     mullw   0x1f             	DW 0xD1F
00065c   0d24     mullw   0x24             	DW 0xD24
00065e   0d29     mullw   0x29             	DW 0xD29
000660   0d2e     mullw   0x2e             	DW 0xD2E
000662   0d33     mullw   0x33             	DW 0xD33
000664   0d38     mullw   0x38             	DW 0xD38
000666   0d3d     mullw   0x3d             	DW 0xD3D
000668   0d42     mullw   0x42             	DW 0xD42
00066a   0d46     mullw   0x46             	DW 0xD46
00066c   0d4b     mullw   0x4b             	DW 0xD4B
00066e   0d50     mullw   0x50             	DW 0xD50
000670   0d55     mullw   0x55             	DW 0xD55
000672   0d5a     mullw   0x5a             	DW 0xD5A
000674   0d5f     mullw   0x5f             	DW 0xD5F
000676   0d64     mullw   0x64             	DW 0xD64
000678   0d69     mullw   0x69             	DW 0xD69
00067a   0d6e     mullw   0x6e             	DW 0xD6E
00067c   0d72     mullw   0x72             	DW 0xD72
00067e   0d77     mullw   0x77             	DW 0xD77
000680   0d7c     mullw   0x7c             	DW 0xD7C
000682   0d81     mullw   0x81             	DW 0xD81
000684   0d86     mullw   0x86             	DW 0xD86
000686   0d8b     mullw   0x8b             	DW 0xD8B
000688   0d90     mullw   0x90             	DW 0xD90
00068a   0d95     mullw   0x95             	DW 0xD95
00068c   0d99     mullw   0x99             	DW 0xD99
00068e   0d9e     mullw   0x9e             	DW 0xD9E
000690   0da3     mullw   0xa3             	DW 0xDA3
000692   0da8     mullw   0xa8             	DW 0xDA8
000694   0dad     mullw   0xad             	DW 0xDAD
000696   0db2     mullw   0xb2             	DW 0xDB2
000698   0db7     mullw   0xb7             	DW 0xDB7
00069a   0dbc     mullw   0xbc             	DW 0xDBC
00069c   0dc1     mullw   0xc1             	DW 0xDC1
00069e   0dc5     mullw   0xc5             	DW 0xDC5
0006a0   0dca     mullw   0xca             	DW 0xDCA
0006a2   0dcf     mullw   0xcf             	DW 0xDCF
0006a4   0dd4     mullw   0xd4             	DW 0xDD4
0006a6   0dd9     mullw   0xd9             	DW 0xDD9
0006a8   0dde     mullw   0xde             	DW 0xDDE
0006aa   0de3     mullw   0xe3             	DW 0xDE3
0006ac   0de8     mullw   0xe8             	DW 0xDE8
0006ae   0dec     mullw   0xec             	DW 0xDEC
0006b0   0df1     mullw   0xf1             	DW 0xDF1
0006b2   0df6     mullw   0xf6             	DW 0xDF6
0006b4   0dfb     mullw   0xfb             	DW 0xDFB
0006b6   0e00     movlw   0x00             	DW 0xE00
0006b8   0e05     movlw   0x05             	DW 0xE05
0006ba   0e0a     movlw   0x0a             	DW 0xE0A
0006bc   0e0f     movlw   0x0f             	DW 0xE0F
0006be   0e14     movlw   0x14             	DW 0xE14
0006c0   0e18     movlw   0x18             	DW 0xE18
0006c2   0e1d     movlw   0x1d             	DW 0xE1D
0006c4   0e22     movlw   0x22             	DW 0xE22
0006c6   0e27     movlw   0x27             	DW 0xE27
0006c8   0e2c     movlw   0x2c             	DW 0xE2C
0006ca   0e31     movlw   0x31             	DW 0xE31
0006cc   0e36     movlw   0x36             	DW 0xE36
0006ce   0e3b     movlw   0x3b             	DW 0xE3B
0006d0   0e3f     movlw   0x3f             	DW 0xE3F
0006d2   0e44     movlw   0x44             	DW 0xE44
0006d4   0e49     movlw   0x49             	DW 0xE49
0006d6   0e4e     movlw   0x4e             	DW 0xE4E
0006d8   0e53     movlw   0x53             	DW 0xE53
0006da   0e58     movlw   0x58             	DW 0xE58
0006dc   0e5d     movlw   0x5d             	DW 0xE5D
0006de   0e62     movlw   0x62             	DW 0xE62
0006e0   0e67     movlw   0x67             	DW 0xE67
0006e2   0e6b     movlw   0x6b             	DW 0xE6B
0006e4   0e70     movlw   0x70             	DW 0xE70
0006e6   0e75     movlw   0x75             	DW 0xE75
0006e8   0e7a     movlw   0x7a             	DW 0xE7A
0006ea   0e7f     movlw   0x7f             	DW 0xE7F
0006ec   0e84     movlw   0x84             	DW 0xE84
0006ee   0e89     movlw   0x89             	DW 0xE89
0006f0   0e8e     movlw   0x8e             	DW 0xE8E
0006f2   0e92     movlw   0x92             	DW 0xE92
0006f4   0e97     movlw   0x97             	DW 0xE97
0006f6   0e9c     movlw   0x9c             	DW 0xE9C
0006f8   0ea1     movlw   0xa1             	DW 0xEA1
0006fa   0ea6     movlw   0xa6             	DW 0xEA6
0006fc   0eab     movlw   0xab             	DW 0xEAB
0006fe   0eb0     movlw   0xb0             	DW 0xEB0
000700   0eb5     movlw   0xb5             	DW 0xEB5
000702   0eba     movlw   0xba             	DW 0xEBA
000704   0ebe     movlw   0xbe             	DW 0xEBE
000706   0ec3     movlw   0xc3             	DW 0xEC3
000708   0ec8     movlw   0xc8             	DW 0xEC8
00070a   0ecd     movlw   0xcd             	DW 0xECD
00070c   0ed2     movlw   0xd2             	DW 0xED2
00070e   0ed7     movlw   0xd7             	DW 0xED7
000710   0edc     movlw   0xdc             	DW 0xEDC
000712   0ee1     movlw   0xe1             	DW 0xEE1
000714   0ee5     movlw   0xe5             	DW 0xEE5
000716   0eea     movlw   0xea             	DW 0xEEA
000718   0eef     movlw   0xef             	DW 0xEEF
00071a   0ef4     movlw   0xf4             	DW 0xEF4
00071c   0ef9     movlw   0xf9             	DW 0xEF9
00071e   0efe     movlw   0xfe             	DW 0xEFE
000720   0f03     addlw   0x03             	DW 0xF03
000722   0f08     addlw   0x08             	DW 0xF08
000724   0f0d     addlw   0x0d             	DW 0xF0D
000726   0f11     addlw   0x11             	DW 0xF11
000728   0f16     addlw   0x16             	DW 0xF16
00072a   0f1b     addlw   0x1b             	DW 0xF1B
00072c   0f20     addlw   0x20             	DW 0xF20
00072e   0f25     addlw   0x25             	DW 0xF25
000730   0f2a     addlw   0x2a             	DW 0xF2A
000732   0f2f     addlw   0x2f             	DW 0xF2F
000734   0f34     addlw   0x34             	DW 0xF34
000736   0f38     addlw   0x38             	DW 0xF38
000738   0f3d     addlw   0x3d             	DW 0xF3D
00073a   0f42     addlw   0x42             	DW 0xF42
00073c   0f47     addlw   0x47             	DW 0xF47
00073e   0f4c     addlw   0x4c             	DW 0xF4C
000740   0f51     addlw   0x51             	DW 0xF51
000742   0f56     addlw   0x56             	DW 0xF56
000744   0f5b     addlw   0x5b             	DW 0xF5B
000746   0f60     addlw   0x60             	DW 0xF60
000748   0f64     addlw   0x64             	DW 0xF64
00074a   0f69     addlw   0x69             	DW 0xF69
00074c   0f6e     addlw   0x6e             	DW 0xF6E
00074e   0f73     addlw   0x73             	DW 0xF73
000750   0f78     addlw   0x78             	DW 0xF78
000752   0f7d     addlw   0x7d             	DW 0xF7D
000754   0f82     addlw   0x82             	DW 0xF82
000756   0f87     addlw   0x87             	DW 0xF87
000758   0f8b     addlw   0x8b             	DW 0xF8B
00075a   0f90     addlw   0x90             	DW 0xF90
00075c   0f95     addlw   0x95             	DW 0xF95
00075e   0f9a     addlw   0x9a             	DW 0xF9A
000760   0f9f     addlw   0x9f             	DW 0xF9F
000762   0fa4     addlw   0xa4             	DW 0xFA4
000764   0fa9     addlw   0xa9             	DW 0xFA9
000766   0fae     addlw   0xae             	DW 0xFAE
000768   0fb3     addlw   0xb3             	DW 0xFB3
00076a   0fb7     addlw   0xb7             	DW 0xFB7
00076c   0fbc     addlw   0xbc             	DW 0xFBC
00076e   0fc1     addlw   0xc1             	DW 0xFC1
000770   0fc6     addlw   0xc6             	DW 0xFC6
000772   0fcb     addlw   0xcb             	DW 0xFCB
000774   0fd0     addlw   0xd0             	DW 0xFD0
000776   0fd5     addlw   0xd5             	DW 0xFD5
000778   0fda     addlw   0xda             	DW 0xFDA
00077a   0fdf     addlw   0xdf             	DW 0xFDF
00077c   0fe3     addlw   0xe3             	DW 0xFE3
00077e   0fe8     addlw   0xe8             	DW 0xFE8
000780   0fed     addlw   0xed             	DW 0xFED
000782   0ff2     addlw   0xf2             	DW 0xFF2
000784   0ff7     addlw   0xf7             	DW 0xFF7
000786   0ffc     addlw   0xfc             	DW 0xFFC
000788   1001     iorwf   0x01, 0x0, 0x0   	DW 0x1001
00078a   1006     iorwf   0x06, 0x0, 0x0   	DW 0x1006
00078c   100a     iorwf   0x0a, 0x0, 0x0   	DW 0x100A
00078e   100f     iorwf   0x0f, 0x0, 0x0   	DW 0x100F
000790   1014     iorwf   0x14, 0x0, 0x0   	DW 0x1014
000792   1019     iorwf   0x19, 0x0, 0x0   	DW 0x1019
000794   101e     iorwf   0x1e, 0x0, 0x0   	DW 0x101E
000796   1023     iorwf   0x23, 0x0, 0x0   	DW 0x1023
000798   1028     iorwf   0x28, 0x0, 0x0   	DW 0x1028
00079a   102d     iorwf   0x2d, 0x0, 0x0   	DW 0x102D
00079c   1032     iorwf   0x32, 0x0, 0x0   	DW 0x1032
00079e   1036     iorwf   0x36, 0x0, 0x0   	DW 0x1036
0007a0   103b     iorwf   0x3b, 0x0, 0x0   	DW 0x103B
0007a2   1040     iorwf   0x40, 0x0, 0x0   	DW 0x1040
0007a4   1045     iorwf   0x45, 0x0, 0x0   	DW 0x1045
0007a6   104a     iorwf   0x4a, 0x0, 0x0   	DW 0x104A
0007a8   104f     iorwf   0x4f, 0x0, 0x0   	DW 0x104F
0007aa   1054     iorwf   0x54, 0x0, 0x0   	DW 0x1054
0007ac   1059     iorwf   0x59, 0x0, 0x0   	DW 0x1059
0007ae   105d     iorwf   0x5d, 0x0, 0x0   	DW 0x105D
0007b0   1062     iorwf   0x62, 0x0, 0x0   	DW 0x1062
0007b2   1067     iorwf   0x67, 0x0, 0x0   	DW 0x1067
0007b4   106c     iorwf   0x6c, 0x0, 0x0   	DW 0x106C
0007b6   1071     iorwf   0x71, 0x0, 0x0   	DW 0x1071
0007b8   1076     iorwf   0x76, 0x0, 0x0   	DW 0x1076
0007ba   107b     iorwf   0x7b, 0x0, 0x0   	DW 0x107B
0007bc   1080     iorwf   0x80, 0x0, 0x0   	DW 0x1080
0007be   1085     iorwf   0x85, 0x0, 0x0   	DW 0x1085
0007c0   1089     iorwf   0x89, 0x0, 0x0   	DW 0x1089
0007c2   108e     iorwf   0x8e, 0x0, 0x0   	DW 0x108E
0007c4   1093     iorwf   0x93, 0x0, 0x0   	DW 0x1093
0007c6   1098     iorwf   0x98, 0x0, 0x0   	DW 0x1098
0007c8   109d     iorwf   0x9d, 0x0, 0x0   	DW 0x109D
0007ca   10a2     iorwf   0xa2, 0x0, 0x0   	DW 0x10A2
0007cc   10a7     iorwf   0xa7, 0x0, 0x0   	DW 0x10A7
0007ce   10ac     iorwf   0xac, 0x0, 0x0   	DW 0x10AC
0007d0   10b0     iorwf   0xb0, 0x0, 0x0   	DW 0x10B0
0007d2   10b5     iorwf   0xb5, 0x0, 0x0   	DW 0x10B5
0007d4   10ba     iorwf   0xba, 0x0, 0x0   	DW 0x10BA
0007d6   10bf     iorwf   0xbf, 0x0, 0x0   	DW 0x10BF
0007d8   10c4     iorwf   0xc4, 0x0, 0x0   	DW 0x10C4
0007da   10c9     iorwf   0xc9, 0x0, 0x0   	DW 0x10C9
0007dc   10ce     iorwf   0xce, 0x0, 0x0   	DW 0x10CE
0007de   10d3     iorwf   0xd3, 0x0, 0x0   	DW 0x10D3
0007e0   10d8     iorwf   0xd8, 0x0, 0x0   	DW 0x10D8
0007e2   10dc     iorwf   0xdc, 0x0, 0x0   	DW 0x10DC
0007e4   10e1     iorwf   0xe1, 0x0, 0x0   	DW 0x10E1
0007e6   10e6     iorwf   0xe6, 0x0, 0x0   	DW 0x10E6
0007e8   10eb     iorwf   0xeb, 0x0, 0x0   	DW 0x10EB
0007ea   10f0     iorwf   0xf0, 0x0, 0x0   	DW 0x10F0
0007ec   10f5     iorwf   0xf5, 0x0, 0x0   	DW 0x10F5
0007ee   10fa     iorwf   0xfa, 0x0, 0x0   	DW 0x10FA
0007f0   10ff     iorwf   0xff, 0x0, 0x0   	DW 0x10FF
0007f2   1103     iorwf   0x03, 0x0, 0x1   	DW 0x1103
0007f4   1108     iorwf   0x08, 0x0, 0x1   	DW 0x1108
0007f6   110d     iorwf   0x0d, 0x0, 0x1   	DW 0x110D
0007f8   1112     iorwf   0x12, 0x0, 0x1   	DW 0x1112
0007fa   1117     iorwf   0x17, 0x0, 0x1   	DW 0x1117
0007fc   111c     iorwf   0x1c, 0x0, 0x1   	DW 0x111C
0007fe   1121     iorwf   0x21, 0x0, 0x1   	DW 0x1121
000800   1126     iorwf   0x26, 0x0, 0x1   	DW 0x1126
000802   112b     iorwf   0x2b, 0x0, 0x1   	DW 0x112B
000804   112f     iorwf   0x2f, 0x0, 0x1   	DW 0x112F
000806   1134     iorwf   0x34, 0x0, 0x1   	DW 0x1134
000808   1139     iorwf   0x39, 0x0, 0x1   	DW 0x1139
00080a   113e     iorwf   0x3e, 0x0, 0x1   	DW 0x113E
00080c   1143     iorwf   0x43, 0x0, 0x1   	DW 0x1143
00080e   1148     iorwf   0x48, 0x0, 0x1   	DW 0x1148
000810   114d     iorwf   0x4d, 0x0, 0x1   	DW 0x114D
000812   1152     iorwf   0x52, 0x0, 0x1   	DW 0x1152
000814   1156     iorwf   0x56, 0x0, 0x1   	DW 0x1156
000816   115b     iorwf   0x5b, 0x0, 0x1   	DW 0x115B
000818   1160     iorwf   0x60, 0x0, 0x1   	DW 0x1160
00081a   1165     iorwf   0x65, 0x0, 0x1   	DW 0x1165
00081c   116a     iorwf   0x6a, 0x0, 0x1   	DW 0x116A
00081e   116f     iorwf   0x6f, 0x0, 0x1   	DW 0x116F
000820   1174     iorwf   0x74, 0x0, 0x1   	DW 0x1174
000822   1179     iorwf   0x79, 0x0, 0x1   	DW 0x1179
000824   117e     iorwf   0x7e, 0x0, 0x1   	DW 0x117E
000826   1182     iorwf   0x82, 0x0, 0x1   	DW 0x1182
000828   1187     iorwf   0x87, 0x0, 0x1   	DW 0x1187
00082a   118c     iorwf   0x8c, 0x0, 0x1   	DW 0x118C
00082c   1191     iorwf   0x91, 0x0, 0x1   	DW 0x1191
00082e   1196     iorwf   0x96, 0x0, 0x1   	DW 0x1196
000830   119b     iorwf   0x9b, 0x0, 0x1   	DW 0x119B
000832   11a0     iorwf   0xa0, 0x0, 0x1   	DW 0x11A0
000834   11a5     iorwf   0xa5, 0x0, 0x1   	DW 0x11A5
000836   11a9     iorwf   0xa9, 0x0, 0x1   	DW 0x11A9
000838   11ae     iorwf   0xae, 0x0, 0x1   	DW 0x11AE
00083a   11b3     iorwf   0xb3, 0x0, 0x1   	DW 0x11B3
00083c   11b8     iorwf   0xb8, 0x0, 0x1   	DW 0x11B8
00083e   11bd     iorwf   0xbd, 0x0, 0x1   	DW 0x11BD
000840   11c2     iorwf   0xc2, 0x0, 0x1   	DW 0x11C2
000842   11c7     iorwf   0xc7, 0x0, 0x1   	DW 0x11C7
000844   11cc     iorwf   0xcc, 0x0, 0x1   	DW 0x11CC
000846   11d1     iorwf   0xd1, 0x0, 0x1   	DW 0x11D1
000848   11d5     iorwf   0xd5, 0x0, 0x1   	DW 0x11D5
00084a   11da     iorwf   0xda, 0x0, 0x1   	DW 0x11DA
00084c   11df     iorwf   0xdf, 0x0, 0x1   	DW 0x11DF
00084e   11e4     iorwf   0xe4, 0x0, 0x1   	DW 0x11E4
000850   11e9     iorwf   0xe9, 0x0, 0x1   	DW 0x11E9
000852   11ee     iorwf   0xee, 0x0, 0x1   	DW 0x11EE
000854   11f3     iorwf   0xf3, 0x0, 0x1   	DW 0x11F3
000856   11f8     iorwf   0xf8, 0x0, 0x1   	DW 0x11F8
000858   11fc     iorwf   0xfc, 0x0, 0x1   	DW 0x11FC
00085a   1201     iorwf   0x01, 0x1, 0x0   	DW 0x1201
00085c   1206     iorwf   0x06, 0x1, 0x0   	DW 0x1206
00085e   120b     iorwf   0x0b, 0x1, 0x0   	DW 0x120B
000860   1210     iorwf   0x10, 0x1, 0x0   	DW 0x1210
000862   1215     iorwf   0x15, 0x1, 0x0   	DW 0x1215
000864   121a     iorwf   0x1a, 0x1, 0x0   	DW 0x121A
000866   121f     iorwf   0x1f, 0x1, 0x0   	DW 0x121F
000868   1224     iorwf   0x24, 0x1, 0x0   	DW 0x1224
00086a   1228     iorwf   0x28, 0x1, 0x0   	DW 0x1228
00086c   122d     iorwf   0x2d, 0x1, 0x0   	DW 0x122D
00086e   1232     iorwf   0x32, 0x1, 0x0   	DW 0x1232
000870   1237     iorwf   0x37, 0x1, 0x0   	DW 0x1237
000872   123c     iorwf   0x3c, 0x1, 0x0   	DW 0x123C
000874   1241     iorwf   0x41, 0x1, 0x0   	DW 0x1241
000876   1246     iorwf   0x46, 0x1, 0x0   	DW 0x1246
000878   124b     iorwf   0x4b, 0x1, 0x0   	DW 0x124B
00087a   1250     iorwf   0x50, 0x1, 0x0   	DW 0x1250
00087c   1254     iorwf   0x54, 0x1, 0x0   	DW 0x1254
00087e   1259     iorwf   0x59, 0x1, 0x0   	DW 0x1259
000880   125e     iorwf   0x5e, 0x1, 0x0   	DW 0x125E
000882   1263     iorwf   0x63, 0x1, 0x0   	DW 0x1263
000884   1268     iorwf   0x68, 0x1, 0x0   	DW 0x1268
000886   126d     iorwf   0x6d, 0x1, 0x0   	DW 0x126D
000888   1272     iorwf   0x72, 0x1, 0x0   	DW 0x1272
00088a   1277     iorwf   0x77, 0x1, 0x0   	DW 0x1277
00088c   127b     iorwf   0x7b, 0x1, 0x0   	DW 0x127B
00088e   1280     iorwf   0x80, 0x1, 0x0   	DW 0x1280
000890   1285     iorwf   0x85, 0x1, 0x0   	DW 0x1285
000892   128a     iorwf   0x8a, 0x1, 0x0   	DW 0x128A
000894   128f     iorwf   0x8f, 0x1, 0x0   	DW 0x128F
000896   1294     iorwf   0x94, 0x1, 0x0   	DW 0x1294
000898   1299     iorwf   0x99, 0x1, 0x0   	DW 0x1299
00089a   129e     iorwf   0x9e, 0x1, 0x0   	DW 0x129E
00089c   12a3     iorwf   0xa3, 0x1, 0x0   	DW 0x12A3
00089e   12a7     iorwf   0xa7, 0x1, 0x0   	DW 0x12A7
0008a0   12ac     iorwf   0xac, 0x1, 0x0   	DW 0x12AC
0008a2   12b1     iorwf   0xb1, 0x1, 0x0   	DW 0x12B1
0008a4   12b6     iorwf   0xb6, 0x1, 0x0   	DW 0x12B6
0008a6   12bb     iorwf   0xbb, 0x1, 0x0   	DW 0x12BB
0008a8   12c0     iorwf   0xc0, 0x1, 0x0   	DW 0x12C0
0008aa   12c5     iorwf   0xc5, 0x1, 0x0   	DW 0x12C5
0008ac   12ca     iorwf   0xca, 0x1, 0x0   	DW 0x12CA
0008ae   12ce     iorwf   0xce, 0x1, 0x0   	DW 0x12CE
0008b0   12d3     iorwf   0xd3, 0x1, 0x0   	DW 0x12D3
0008b2   12d8     iorwf   0xd8, 0x1, 0x0   	DW 0x12D8
0008b4   12dd     iorwf   0xdd, 0x1, 0x0   	DW 0x12DD
0008b6   12e2     iorwf   0xe2, 0x1, 0x0   	DW 0x12E2
0008b8   12e7     iorwf   0xe7, 0x1, 0x0   	DW 0x12E7
0008ba   12ec     iorwf   0xec, 0x1, 0x0   	DW 0x12EC
0008bc   12f1     iorwf   0xf1, 0x1, 0x0   	DW 0x12F1
0008be   12f6     iorwf   0xf6, 0x1, 0x0   	DW 0x12F6
0008c0   12fa     iorwf   0xfa, 0x1, 0x0   	DW 0x12FA
0008c2   12ff     iorwf   0xff, 0x1, 0x0   	DW 0x12FF
0008c4   1304     iorwf   0x04, 0x1, 0x1   	DW 0x1304
0008c6   1309     iorwf   0x09, 0x1, 0x1   	DW 0x1309
0008c8   130e     iorwf   0x0e, 0x1, 0x1   	DW 0x130E
0008ca   1313     iorwf   0x13, 0x1, 0x1   	DW 0x1313
0008cc   1318     iorwf   0x18, 0x1, 0x1   	DW 0x1318
0008ce   131d     iorwf   0x1d, 0x1, 0x1   	DW 0x131D
0008d0   1321     iorwf   0x21, 0x1, 0x1   	DW 0x1321
0008d2   1326     iorwf   0x26, 0x1, 0x1   	DW 0x1326
0008d4   132b     iorwf   0x2b, 0x1, 0x1   	DW 0x132B
0008d6   1330     iorwf   0x30, 0x1, 0x1   	DW 0x1330
0008d8   1335     iorwf   0x35, 0x1, 0x1   	DW 0x1335
0008da   133a     iorwf   0x3a, 0x1, 0x1   	DW 0x133A
0008dc   133f     iorwf   0x3f, 0x1, 0x1   	DW 0x133F
0008de   1344     iorwf   0x44, 0x1, 0x1   	DW 0x1344
0008e0   1349     iorwf   0x49, 0x1, 0x1   	DW 0x1349
0008e2   134d     iorwf   0x4d, 0x1, 0x1   	DW 0x134D
0008e4   1352     iorwf   0x52, 0x1, 0x1   	DW 0x1352
0008e6   1357     iorwf   0x57, 0x1, 0x1   	DW 0x1357
0008e8   135c     iorwf   0x5c, 0x1, 0x1   	DW 0x135C
0008ea   1361     iorwf   0x61, 0x1, 0x1   	DW 0x1361
0008ec   1366     iorwf   0x66, 0x1, 0x1   	DW 0x1366
0008ee   136b     iorwf   0x6b, 0x1, 0x1   	DW 0x136B
0008f0   1370     iorwf   0x70, 0x1, 0x1   	DW 0x1370
0008f2   1374     iorwf   0x74, 0x1, 0x1   	DW 0x1374
0008f4   1379     iorwf   0x79, 0x1, 0x1   	DW 0x1379
0008f6   137e     iorwf   0x7e, 0x1, 0x1   	DW 0x137E
0008f8   1383     iorwf   0x83, 0x1, 0x1   	DW 0x1383
                                           #ENDIF
                                           c_data_adc_theoric_caltable_end

                                           	global c_data_adc_theoric_caltable
                                           	
                                           	end
                                                   LIST

                                           ;==========================================================================
                                           ; Build date : Oct 21 2015
                                           ;  MPASM PIC18F1320 processor include
                                           ; 
                                           ;  (c) Copyright 1999-2015 Microchip Technology, All rights reserved
                                           ;==========================================================================

                                                   NOLIST
                                                   LIST

                                           ;==========================================================================
                                           ; Build date : Oct 21 2015
                                           ;  MPASM PIC18F1320 processor include
                                           ; 
                                           ;  (c) Copyright 1999-2015 Microchip Technology, All rights reserved
                                           ;==========================================================================

                                                   NOLIST
                                                   LIST

                                           ;==========================================================================
                                           ; Build date : Oct 21 2015
                                           ;  MPASM PIC18F1320 processor include
                                           ; 
                                           ;  (c) Copyright 1999-2015 Microchip Technology, All rights reserved
                                           ;==========================================================================

                                                   NOLIST
                                                   LIST

                                           ;==========================================================================
                                           ; Build date : Oct 21 2015
                                           ;  MPASM PIC18F1320 processor include
                                           ; 
                                           ;  (c) Copyright 1999-2015 Microchip Technology, All rights reserved
                                           ;==========================================================================

                                                   NOLIST
                                                   LIST

                                           ;==========================================================================
                                           ; Build date : Oct 21 2015
                                           ;  MPASM PIC18F1320 processor include
                                           ; 
                                           ;  (c) Copyright 1999-2015 Microchip Technology, All rights reserved
                                           ;==========================================================================

                                                   NOLIST
                                                   LIST

                                           ;==========================================================================
                                           ; Build date : Oct 21 2015
                                           ;  MPASM PIC18F1320 processor include
                                           ; 
                                           ;  (c) Copyright 1999-2015 Microchip Technology, All rights reserved
                                           ;==========================================================================

                                                   NOLIST
